; Function Attrs: nounwind uwtable
define ptr @_php_stream_memory_create(i32 noundef %0) local_unnamed_addr #0 {
  %2 = tail call noalias ptr @_emalloc_24() #20
  %3 = load ptr, ptr @zend_empty_string, align 8
  store ptr %3, ptr %2, align 8
  %4 = getelementptr inbounds i8, ptr %2, i64 8
  store i64 0, ptr %4, align 8
  %5 = getelementptr inbounds i8, ptr %2, i64 16
  store i32 %0, ptr %5, align 8
  %switch.selectcmp.i = icmp eq i32 %0, 4
  %switch.select.i = select i1 %switch.selectcmp.i, ptr @.str.4, ptr @.str.5
  %switch.selectcmp3.i = icmp eq i32 %0, 1
  %switch.select4.i = select i1 %switch.selectcmp3.i, ptr @.str.3, ptr %switch.select.i
  %6 = tail call ptr @_php_stream_alloc(ptr noundef nonnull @php_stream_memory_ops, ptr noundef nonnull %2, ptr noundef null, ptr noundef nonnull %switch.select4.i) #20
  %7 = getelementptr inbounds i8, ptr %6, i64 116
  %8 = load i32, ptr %7, align 4
  %9 = or i32 %8, 2
  store i32 %9, ptr %7, align 4
  ret ptr %6
}